; ModuleID = '19/205.c'
source_filename = "19/205.c"
target datalayout = "e-m:e-p270:32:32-p271:32:32-p272:64:64-i64:64-f80:128-n8:16:32:64-S128"
target triple = "x86_64-pc-linux-gnu"

@.str = private unnamed_addr constant [3 x i8] c"%s\00", align 1
@.str.1 = private unnamed_addr constant [4 x i8] c" %s\00", align 1

; Function Attrs: noinline nounwind uwtable
define dso_local i32 @main() #0 {
  %1 = alloca i32, align 4
  %2 = alloca i32, align 4
  %3 = alloca i32, align 4
  %4 = alloca [120 x i8], align 16
  %5 = alloca [120 x i8], align 16
  %6 = alloca [120 x i8], align 16
  %7 = alloca [120 x i8], align 16
  store i32 0, i32* %1, align 4
  %8 = getelementptr inbounds [120 x i8], [120 x i8]* %4, i64 0, i64 0
  %9 = call i32 (i8*, ...) bitcast (i32 (...)* @gets to i32 (i8*, ...)*)(i8* %8)
  %10 = getelementptr inbounds [120 x i8], [120 x i8]* %6, i64 0, i64 0
  %11 = call i32 (i8*, ...) bitcast (i32 (...)* @gets to i32 (i8*, ...)*)(i8* %10)
  %12 = getelementptr inbounds [120 x i8], [120 x i8]* %7, i64 0, i64 0
  %13 = call i32 (i8*, ...) bitcast (i32 (...)* @gets to i32 (i8*, ...)*)(i8* %12)
  store i32 0, i32* %2, align 4
  br label %14

14:                                               ; preds = %38, %0
  %15 = load i32, i32* %2, align 4
  %16 = sext i32 %15 to i64
  %17 = getelementptr inbounds [120 x i8], [120 x i8]* %4, i64 0, i64 %16
  %18 = load i8, i8* %17, align 1
  %19 = sext i8 %18 to i32
  %20 = icmp ne i32 %19, 32
  br i1 %20, label %21, label %28

21:                                               ; preds = %14
  %22 = load i32, i32* %2, align 4
  %23 = sext i32 %22 to i64
  %24 = getelementptr inbounds [120 x i8], [120 x i8]* %4, i64 0, i64 %23
  %25 = load i8, i8* %24, align 1
  %26 = sext i8 %25 to i32
  %27 = icmp ne i32 %26, 0
  br label %28

28:                                               ; preds = %21, %14
  %29 = phi i1 [ false, %14 ], [ %27, %21 ]
  br i1 %29, label %30, label %41

30:                                               ; preds = %28
  %31 = load i32, i32* %2, align 4
  %32 = sext i32 %31 to i64
  %33 = getelementptr inbounds [120 x i8], [120 x i8]* %4, i64 0, i64 %32
  %34 = load i8, i8* %33, align 1
  %35 = load i32, i32* %2, align 4
  %36 = sext i32 %35 to i64
  %37 = getelementptr inbounds [120 x i8], [120 x i8]* %5, i64 0, i64 %36
  store i8 %34, i8* %37, align 1
  br label %38

38:                                               ; preds = %30
  %39 = load i32, i32* %2, align 4
  %40 = add nsw i32 %39, 1
  store i32 %40, i32* %2, align 4
  br label %14

41:                                               ; preds = %28
  %42 = load i32, i32* %2, align 4
  %43 = sext i32 %42 to i64
  %44 = getelementptr inbounds [120 x i8], [120 x i8]* %5, i64 0, i64 %43
  store i8 0, i8* %44, align 1
  %45 = getelementptr inbounds [120 x i8], [120 x i8]* %5, i64 0, i64 0
  %46 = getelementptr inbounds [120 x i8], [120 x i8]* %6, i64 0, i64 0
  %47 = call i32 @strcmp(i8* %45, i8* %46) #3
  %48 = icmp eq i32 %47, 0
  br i1 %48, label %49, label %52

49:                                               ; preds = %41
  %50 = getelementptr inbounds [120 x i8], [120 x i8]* %7, i64 0, i64 0
  %51 = call i32 (i8*, ...) @printf(i8* getelementptr inbounds ([3 x i8], [3 x i8]* @.str, i64 0, i64 0), i8* %50)
  br label %55

52:                                               ; preds = %41
  %53 = getelementptr inbounds [120 x i8], [120 x i8]* %5, i64 0, i64 0
  %54 = call i32 (i8*, ...) @printf(i8* getelementptr inbounds ([3 x i8], [3 x i8]* @.str, i64 0, i64 0), i8* %53)
  br label %55

55:                                               ; preds = %52, %49
  %56 = load i32, i32* %2, align 4
  store i32 %56, i32* %3, align 4
  br label %57

57:                                               ; preds = %114, %55
  %58 = load i32, i32* %2, align 4
  %59 = sext i32 %58 to i64
  %60 = getelementptr inbounds [120 x i8], [120 x i8]* %4, i64 0, i64 %59
  %61 = load i8, i8* %60, align 1
  %62 = sext i8 %61 to i32
  %63 = icmp ne i32 %62, 0
  br i1 %63, label %64, label %116

64:                                               ; preds = %57
  %65 = load i32, i32* %2, align 4
  %66 = add nsw i32 %65, 1
  store i32 %66, i32* %2, align 4
  br label %67

67:                                               ; preds = %94, %64
  %68 = load i32, i32* %2, align 4
  %69 = sext i32 %68 to i64
  %70 = getelementptr inbounds [120 x i8], [120 x i8]* %4, i64 0, i64 %69
  %71 = load i8, i8* %70, align 1
  %72 = sext i8 %71 to i32
  %73 = icmp ne i32 %72, 32
  br i1 %73, label %74, label %81

74:                                               ; preds = %67
  %75 = load i32, i32* %2, align 4
  %76 = sext i32 %75 to i64
  %77 = getelementptr inbounds [120 x i8], [120 x i8]* %4, i64 0, i64 %76
  %78 = load i8, i8* %77, align 1
  %79 = sext i8 %78 to i32
  %80 = icmp ne i32 %79, 0
  br label %81

81:                                               ; preds = %74, %67
  %82 = phi i1 [ false, %67 ], [ %80, %74 ]
  br i1 %82, label %83, label %97

83:                                               ; preds = %81
  %84 = load i32, i32* %2, align 4
  %85 = sext i32 %84 to i64
  %86 = getelementptr inbounds [120 x i8], [120 x i8]* %4, i64 0, i64 %85
  %87 = load i8, i8* %86, align 1
  %88 = load i32, i32* %2, align 4
  %89 = load i32, i32* %3, align 4
  %90 = sub nsw i32 %88, %89
  %91 = sub nsw i32 %90, 1
  %92 = sext i32 %91 to i64
  %93 = getelementptr inbounds [120 x i8], [120 x i8]* %5, i64 0, i64 %92
  store i8 %87, i8* %93, align 1
  br label %94

94:                                               ; preds = %83
  %95 = load i32, i32* %2, align 4
  %96 = add nsw i32 %95, 1
  store i32 %96, i32* %2, align 4
  br label %67

97:                                               ; preds = %81
  %98 = load i32, i32* %2, align 4
  %99 = load i32, i32* %3, align 4
  %100 = sub nsw i32 %98, %99
  %101 = sub nsw i32 %100, 1
  %102 = sext i32 %101 to i64
  %103 = getelementptr inbounds [120 x i8], [120 x i8]* %5, i64 0, i64 %102
  store i8 0, i8* %103, align 1
  %104 = getelementptr inbounds [120 x i8], [120 x i8]* %5, i64 0, i64 0
  %105 = getelementptr inbounds [120 x i8], [120 x i8]* %6, i64 0, i64 0
  %106 = call i32 @strcmp(i8* %104, i8* %105) #3
  %107 = icmp eq i32 %106, 0
  br i1 %107, label %108, label %111

108:                                              ; preds = %97
  %109 = getelementptr inbounds [120 x i8], [120 x i8]* %7, i64 0, i64 0
  %110 = call i32 (i8*, ...) @printf(i8* getelementptr inbounds ([4 x i8], [4 x i8]* @.str.1, i64 0, i64 0), i8* %109)
  br label %114

111:                                              ; preds = %97
  %112 = getelementptr inbounds [120 x i8], [120 x i8]* %5, i64 0, i64 0
  %113 = call i32 (i8*, ...) @printf(i8* getelementptr inbounds ([4 x i8], [4 x i8]* @.str.1, i64 0, i64 0), i8* %112)
  br label %114

114:                                              ; preds = %111, %108
  %115 = load i32, i32* %2, align 4
  store i32 %115, i32* %3, align 4
  br label %57

116:                                              ; preds = %57
  ret i32 0
}

declare dso_local i32 @gets(...) #1

; Function Attrs: nounwind readonly
declare dso_local i32 @strcmp(i8*, i8*) #2

declare dso_local i32 @printf(i8*, ...) #1


!llvm.module.flags = !{!0}
!llvm.ident = !{!1}

!0 = !{i32 1, !"wchar_size", i32 4}
!1 = !{!"clang version 10.0.0-4ubuntu1 "}
