; ModuleID = 'source-C-CXX/18/205.c'
source_filename = "source-C-CXX/18/205.c"
target datalayout = "e-m:e-p270:32:32-p271:32:32-p272:64:64-i64:64-f80:128-n8:16:32:64-S128"
target triple = "x86_64-pc-linux-gnu"

@.str = private unnamed_addr constant [3 x i8] c"%s\00", align 1
@.str.1 = private unnamed_addr constant [4 x i8] c" %s\00", align 1

; Function Attrs: nounwind sspstrong uwtable
define dso_local i32 @main() local_unnamed_addr #0 {
  %1 = alloca [120 x i8], align 16
  %2 = alloca [120 x i8], align 16
  %3 = alloca [120 x i8], align 16
  %4 = alloca [120 x i8], align 16
  %5 = getelementptr inbounds [120 x i8], [120 x i8]* %1, i64 0, i64 0
  call void @llvm.lifetime.start.p0i8(i64 120, i8* nonnull %5) #5
  %6 = getelementptr inbounds [120 x i8], [120 x i8]* %2, i64 0, i64 0
  call void @llvm.lifetime.start.p0i8(i64 120, i8* nonnull %6) #5
  %7 = getelementptr inbounds [120 x i8], [120 x i8]* %3, i64 0, i64 0
  call void @llvm.lifetime.start.p0i8(i64 120, i8* nonnull %7) #5
  %8 = getelementptr inbounds [120 x i8], [120 x i8]* %4, i64 0, i64 0
  call void @llvm.lifetime.start.p0i8(i64 120, i8* nonnull %8) #5
  %9 = call i32 (i8*, ...) bitcast (i32 (...)* @gets to i32 (i8*, ...)*)(i8* nonnull %5) #5
  %10 = call i32 (i8*, ...) bitcast (i32 (...)* @gets to i32 (i8*, ...)*)(i8* nonnull %7) #5
  %11 = call i32 (i8*, ...) bitcast (i32 (...)* @gets to i32 (i8*, ...)*)(i8* nonnull %8) #5
  br label %12

12:                                               ; preds = %16, %0
  %13 = phi i64 [ %18, %16 ], [ 0, %0 ]
  %14 = getelementptr inbounds [120 x i8], [120 x i8]* %1, i64 0, i64 %13
  %15 = load i8, i8* %14, align 1, !tbaa !5
  switch i8 %15, label %16 [
    i8 32, label %19
    i8 0, label %19
  ]

16:                                               ; preds = %12
  %17 = getelementptr inbounds [120 x i8], [120 x i8]* %2, i64 0, i64 %13
  store i8 %15, i8* %17, align 1, !tbaa !5
  %18 = add nuw i64 %13, 1
  br label %12, !llvm.loop !8

19:                                               ; preds = %12, %12
  %20 = and i64 %13, 4294967295
  %21 = getelementptr inbounds [120 x i8], [120 x i8]* %2, i64 0, i64 %20
  store i8 0, i8* %21, align 1, !tbaa !5
  %22 = call i32 @strcmp(i8* noundef nonnull %6, i8* noundef nonnull %7) #6
  %23 = icmp eq i32 %22, 0
  %24 = select i1 %23, i8* %8, i8* %6
  %25 = call i32 (i8*, ...) @printf(i8* nonnull dereferenceable(1) getelementptr inbounds ([3 x i8], [3 x i8]* @.str, i64 0, i64 0), i8* nonnull %24)
  %26 = getelementptr inbounds [120 x i8], [120 x i8]* %1, i64 0, i64 %20
  %27 = load i8, i8* %26, align 1, !tbaa !5
  %28 = icmp eq i8 %27, 0
  br i1 %28, label %57, label %29

29:                                               ; preds = %19, %43
  %30 = phi i64 [ %35, %43 ], [ %13, %19 ]
  %31 = shl i64 %30, 32
  %32 = ashr exact i64 %31, 32
  br label %33

33:                                               ; preds = %29, %38
  %34 = phi i64 [ %32, %29 ], [ %35, %38 ]
  %35 = add nsw i64 %34, 1
  %36 = getelementptr inbounds [120 x i8], [120 x i8]* %1, i64 0, i64 %35
  %37 = load i8, i8* %36, align 1, !tbaa !5
  switch i8 %37, label %38 [
    i8 32, label %43
    i8 0, label %43
  ]

38:                                               ; preds = %33
  %39 = sub i64 %34, %30
  %40 = shl i64 %39, 32
  %41 = ashr exact i64 %40, 32
  %42 = getelementptr inbounds [120 x i8], [120 x i8]* %2, i64 0, i64 %41
  store i8 %37, i8* %42, align 1, !tbaa !5
  br label %33, !llvm.loop !10

43:                                               ; preds = %33, %33
  %44 = sub i64 %34, %30
  %45 = shl i64 %44, 32
  %46 = ashr exact i64 %45, 32
  %47 = getelementptr inbounds [120 x i8], [120 x i8]* %2, i64 0, i64 %46
  store i8 0, i8* %47, align 1, !tbaa !5
  %48 = call i32 @strcmp(i8* noundef nonnull %6, i8* noundef nonnull %7) #6
  %49 = icmp eq i32 %48, 0
  %50 = select i1 %49, i8* %8, i8* %6
  %51 = call i32 (i8*, ...) @printf(i8* nonnull dereferenceable(1) getelementptr inbounds ([4 x i8], [4 x i8]* @.str.1, i64 0, i64 0), i8* nonnull %50)
  %52 = shl i64 %35, 32
  %53 = ashr exact i64 %52, 32
  %54 = getelementptr inbounds [120 x i8], [120 x i8]* %1, i64 0, i64 %53
  %55 = load i8, i8* %54, align 1, !tbaa !5
  %56 = icmp eq i8 %55, 0
  br i1 %56, label %57, label %29, !llvm.loop !11

57:                                               ; preds = %43, %19
  call void @llvm.lifetime.end.p0i8(i64 120, i8* nonnull %8) #5
  call void @llvm.lifetime.end.p0i8(i64 120, i8* nonnull %7) #5
  call void @llvm.lifetime.end.p0i8(i64 120, i8* nonnull %6) #5
  call void @llvm.lifetime.end.p0i8(i64 120, i8* nonnull %5) #5
  ret i32 0
}

; Function Attrs: argmemonly mustprogress nofree nosync nounwind willreturn
declare void @llvm.lifetime.start.p0i8(i64 immarg, i8* nocapture) #1

declare i32 @gets(...) local_unnamed_addr #2

; Function Attrs: argmemonly mustprogress nofree nounwind readonly willreturn
declare i32 @strcmp(i8* nocapture, i8* nocapture) local_unnamed_addr #3

; Function Attrs: nofree nounwind
declare noundef i32 @printf(i8* nocapture noundef readonly, ...) local_unnamed_addr #4

; Function Attrs: argmemonly mustprogress nofree nosync nounwind willreturn
declare void @llvm.lifetime.end.p0i8(i64 immarg, i8* nocapture) #1


!llvm.module.flags = !{!0, !1, !2, !3}
!llvm.ident = !{!4}

!0 = !{i32 1, !"wchar_size", i32 4}
!1 = !{i32 7, !"PIC Level", i32 2}
!2 = !{i32 7, !"PIE Level", i32 2}
!3 = !{i32 7, !"uwtable", i32 1}
!4 = !{!"clang version 13.0.0"}
!5 = !{!6, !6, i64 0}
!6 = !{!"omnipotent char", !7, i64 0}
!7 = !{!"Simple C/C++ TBAA"}
!8 = distinct !{!8, !9}
!9 = !{!"llvm.loop.mustprogress"}
!10 = distinct !{!10, !9}
!11 = distinct !{!11, !9}
